; Function Attrs: mustprogress uwtable
define noundef ptr @utrie_open_77(ptr noundef %0, ptr noundef %1, i32 noundef %2, i32 noundef %3, i32 noundef %4, i8 noundef signext %5) local_unnamed_addr #0 {
  %7 = icmp slt i32 %2, 32
  br i1 %7, label %43, label %8

8:                                                ; preds = %6
  %9 = icmp ne i8 %5, 0
  %10 = icmp samesign ult i32 %2, 1024
  %or.cond = and i1 %10, %9
  br i1 %or.cond, label %43, label %11

11:                                               ; preds = %8
  %.not = icmp eq ptr %0, null
  br i1 %.not, label %12, label %15

12:                                               ; preds = %11
  %13 = tail call noalias dereferenceable_or_null(278816) ptr @uprv_malloc_77(i64 noundef 278816) #14
  %14 = icmp eq ptr %13, null
  br i1 %14, label %43, label %15

15:                                               ; preds = %11, %12
  %.041 = phi ptr [ %13, %12 ], [ %0, %11 ]
  tail call void @llvm.memset.p0.i64(ptr noundef nonnull align 8 dereferenceable(278816) %.041, i8 0, i64 278816, i1 false)
  %16 = zext i1 %.not to i8
  %17 = getelementptr inbounds nuw i8, ptr %.041, i64 139416
  store i8 %16, ptr %17, align 8, !tbaa !3
  %.not47 = icmp eq ptr %1, null
  br i1 %.not47, label %20, label %18

18:                                               ; preds = %15
  %19 = getelementptr inbounds nuw i8, ptr %.041, i64 139392
  store ptr %1, ptr %19, align 8, !tbaa !10
  br label %27

20:                                               ; preds = %15
  %21 = shl nsw i32 %2, 2
  %22 = zext nneg i32 %21 to i64
  %23 = tail call noalias ptr @uprv_malloc_77(i64 noundef %22) #14
  %24 = getelementptr inbounds nuw i8, ptr %.041, i64 139392
  store ptr %23, ptr %24, align 8, !tbaa !10
  %25 = icmp eq ptr %23, null
  br i1 %25, label %26, label %27

26:                                               ; preds = %20
  tail call void @uprv_free_77(ptr noundef nonnull %.041)
  br label %43

27:                                               ; preds = %20, %18
  %.sink = phi i8 [ 0, %18 ], [ 1, %20 ]
  %28 = phi ptr [ %1, %18 ], [ %23, %20 ]
  %29 = getelementptr inbounds nuw i8, ptr %.041, i64 139417
  store i8 %.sink, ptr %29, align 1, !tbaa !11
  br i1 %9, label %.preheader, label %.loopexit

.preheader:                                       ; preds = %27, %.preheader
  %indvars.iv = phi i64 [ %indvars.iv.next, %.preheader ], [ 0, %27 ]
  %.1 = phi i32 [ %31, %.preheader ], [ 32, %27 ]
  %indvars.iv.next = add nuw nsw i64 %indvars.iv, 1
  %30 = getelementptr inbounds nuw [34848 x i32], ptr %.041, i64 0, i64 %indvars.iv
  store i32 %.1, ptr %30, align 4, !tbaa !12
  %31 = add nuw nsw i32 %.1, 32
  %exitcond.not = icmp eq i64 %indvars.iv.next, 8
  br i1 %exitcond.not, label %.loopexit, label %.preheader, !llvm.loop !13

.loopexit:                                        ; preds = %.preheader, %27
  %.0 = phi i32 [ 32, %27 ], [ 288, %.preheader ]
  %32 = getelementptr inbounds nuw i8, ptr %.041, i64 139412
  store i32 %.0, ptr %32, align 4, !tbaa !15
  %33 = zext nneg i32 %.0 to i64
  br label %34

34:                                               ; preds = %.loopexit, %34
  %indvars.iv50 = phi i64 [ %33, %.loopexit ], [ %indvars.iv.next51, %34 ]
  %indvars.iv.next51 = add nsw i64 %indvars.iv50, -1
  %35 = getelementptr inbounds nuw i32, ptr %28, i64 %indvars.iv.next51
  store i32 %3, ptr %35, align 4, !tbaa !12
  %36 = icmp samesign ugt i64 %indvars.iv50, 1
  br i1 %36, label %34, label %37, !llvm.loop !16

37:                                               ; preds = %34
  %38 = getelementptr inbounds nuw i8, ptr %.041, i64 139400
  store i32 %4, ptr %38, align 8, !tbaa !17
  %39 = getelementptr inbounds nuw i8, ptr %.041, i64 139404
  store i32 34816, ptr %39, align 4, !tbaa !18
  %40 = getelementptr inbounds nuw i8, ptr %.041, i64 139408
  store i32 %2, ptr %40, align 8, !tbaa !19
  %41 = getelementptr inbounds nuw i8, ptr %.041, i64 139418
  store i8 %5, ptr %41, align 2, !tbaa !20
  %42 = getelementptr inbounds nuw i8, ptr %.041, i64 139419
  store i8 0, ptr %42, align 1, !tbaa !21
  br label %43

43:                                               ; preds = %12, %6, %8, %37, %26
  %.042 = phi ptr [ %.041, %37 ], [ null, %26 ], [ null, %8 ], [ null, %6 ], [ null, %12 ]
  ret ptr %.042
}